; Function Attrs: nounwind uwtable
define noundef ptr @l___private_Std_Time_Date_Unit_Weekday_0__Std_Time_reprWeekday_match__1_splitter____x40_Std_Time_Date_Unit_Weekday___hyg_13____rarg(i8 noundef zeroext %0, ptr noundef %1, ptr noundef %2, ptr noundef %3, ptr noundef %4, ptr noundef %5, ptr noundef %6, ptr noundef %7) local_unnamed_addr #1 {
  switch i8 %0, label %63 [
    i8 0, label %9
    i8 1, label %18
    i8 2, label %27
    i8 3, label %36
    i8 4, label %45
    i8 5, label %54
  ]

9:                                                ; preds = %8
  %10 = ptrtoint ptr %1 to i64
  %11 = and i64 %10, 1
  %.not43 = icmp eq i64 %11, 0
  br i1 %.not43, label %12, label %lean_inc.exit20

12:                                               ; preds = %9
  %.val.i = load i32, ptr %1, align 4, !tbaa !4
  %13 = icmp sgt i32 %.val.i, 0
  br i1 %13, label %14, label %16, !prof !9

14:                                               ; preds = %12
  %15 = add nuw i32 %.val.i, 1
  store i32 %15, ptr %1, align 4, !tbaa !4
  br label %lean_inc.exit20

16:                                               ; preds = %12
  %.not.i = icmp eq i32 %.val.i, 0
  br i1 %.not.i, label %lean_inc.exit20, label %17

17:                                               ; preds = %16
  tail call void @lean_inc_ref_cold(ptr noundef nonnull %1) #7
  br label %lean_inc.exit20

18:                                               ; preds = %8
  %19 = ptrtoint ptr %2 to i64
  %20 = and i64 %19, 1
  %.not42 = icmp eq i64 %20, 0
  br i1 %.not42, label %21, label %lean_inc.exit20

21:                                               ; preds = %18
  %.val.i21 = load i32, ptr %2, align 4, !tbaa !4
  %22 = icmp sgt i32 %.val.i21, 0
  br i1 %22, label %23, label %25, !prof !9

23:                                               ; preds = %21
  %24 = add nuw i32 %.val.i21, 1
  store i32 %24, ptr %2, align 4, !tbaa !4
  br label %lean_inc.exit20

25:                                               ; preds = %21
  %.not.i22 = icmp eq i32 %.val.i21, 0
  br i1 %.not.i22, label %lean_inc.exit20, label %26

26:                                               ; preds = %25
  tail call void @lean_inc_ref_cold(ptr noundef nonnull %2) #7
  br label %lean_inc.exit20

27:                                               ; preds = %8
  %28 = ptrtoint ptr %3 to i64
  %29 = and i64 %28, 1
  %.not41 = icmp eq i64 %29, 0
  br i1 %.not41, label %30, label %lean_inc.exit20

30:                                               ; preds = %27
  %.val.i24 = load i32, ptr %3, align 4, !tbaa !4
  %31 = icmp sgt i32 %.val.i24, 0
  br i1 %31, label %32, label %34, !prof !9

32:                                               ; preds = %30
  %33 = add nuw i32 %.val.i24, 1
  store i32 %33, ptr %3, align 4, !tbaa !4
  br label %lean_inc.exit20

34:                                               ; preds = %30
  %.not.i25 = icmp eq i32 %.val.i24, 0
  br i1 %.not.i25, label %lean_inc.exit20, label %35

35:                                               ; preds = %34
  tail call void @lean_inc_ref_cold(ptr noundef nonnull %3) #7
  br label %lean_inc.exit20

36:                                               ; preds = %8
  %37 = ptrtoint ptr %4 to i64
  %38 = and i64 %37, 1
  %.not40 = icmp eq i64 %38, 0
  br i1 %.not40, label %39, label %lean_inc.exit20

39:                                               ; preds = %36
  %.val.i27 = load i32, ptr %4, align 4, !tbaa !4
  %40 = icmp sgt i32 %.val.i27, 0
  br i1 %40, label %41, label %43, !prof !9

41:                                               ; preds = %39
  %42 = add nuw i32 %.val.i27, 1
  store i32 %42, ptr %4, align 4, !tbaa !4
  br label %lean_inc.exit20

43:                                               ; preds = %39
  %.not.i28 = icmp eq i32 %.val.i27, 0
  br i1 %.not.i28, label %lean_inc.exit20, label %44

44:                                               ; preds = %43
  tail call void @lean_inc_ref_cold(ptr noundef nonnull %4) #7
  br label %lean_inc.exit20

45:                                               ; preds = %8
  %46 = ptrtoint ptr %5 to i64
  %47 = and i64 %46, 1
  %.not39 = icmp eq i64 %47, 0
  br i1 %.not39, label %48, label %lean_inc.exit20

48:                                               ; preds = %45
  %.val.i30 = load i32, ptr %5, align 4, !tbaa !4
  %49 = icmp sgt i32 %.val.i30, 0
  br i1 %49, label %50, label %52, !prof !9

50:                                               ; preds = %48
  %51 = add nuw i32 %.val.i30, 1
  store i32 %51, ptr %5, align 4, !tbaa !4
  br label %lean_inc.exit20

52:                                               ; preds = %48
  %.not.i31 = icmp eq i32 %.val.i30, 0
  br i1 %.not.i31, label %lean_inc.exit20, label %53

53:                                               ; preds = %52
  tail call void @lean_inc_ref_cold(ptr noundef nonnull %5) #7
  br label %lean_inc.exit20

54:                                               ; preds = %8
  %55 = ptrtoint ptr %6 to i64
  %56 = and i64 %55, 1
  %.not = icmp eq i64 %56, 0
  br i1 %.not, label %57, label %lean_inc.exit20

57:                                               ; preds = %54
  %.val.i33 = load i32, ptr %6, align 4, !tbaa !4
  %58 = icmp sgt i32 %.val.i33, 0
  br i1 %58, label %59, label %61, !prof !9

59:                                               ; preds = %57
  %60 = add nuw i32 %.val.i33, 1
  store i32 %60, ptr %6, align 4, !tbaa !4
  br label %lean_inc.exit20

61:                                               ; preds = %57
  %.not.i34 = icmp eq i32 %.val.i33, 0
  br i1 %.not.i34, label %lean_inc.exit20, label %62

62:                                               ; preds = %61
  tail call void @lean_inc_ref_cold(ptr noundef nonnull %6) #7
  br label %lean_inc.exit20

63:                                               ; preds = %8
  %64 = ptrtoint ptr %7 to i64
  %65 = and i64 %64, 1
  %.not44 = icmp eq i64 %65, 0
  br i1 %.not44, label %66, label %lean_inc.exit20

66:                                               ; preds = %63
  %.val.i36 = load i32, ptr %7, align 4, !tbaa !4
  %67 = icmp sgt i32 %.val.i36, 0
  br i1 %67, label %68, label %70, !prof !9

68:                                               ; preds = %66
  %69 = add nuw i32 %.val.i36, 1
  store i32 %69, ptr %7, align 4, !tbaa !4
  br label %lean_inc.exit20

70:                                               ; preds = %66
  %.not.i37 = icmp eq i32 %.val.i36, 0
  br i1 %.not.i37, label %lean_inc.exit20, label %71

71:                                               ; preds = %70
  tail call void @lean_inc_ref_cold(ptr noundef nonnull %7) #7
  br label %lean_inc.exit20

lean_inc.exit20:                                  ; preds = %63, %68, %70, %71, %54, %59, %61, %62, %45, %50, %52, %53, %36, %41, %43, %44, %27, %32, %34, %35, %18, %23, %25, %26, %9, %14, %16, %17
  %.0 = phi ptr [ %1, %17 ], [ %1, %16 ], [ %1, %14 ], [ %1, %9 ], [ %2, %26 ], [ %2, %25 ], [ %2, %23 ], [ %2, %18 ], [ %3, %35 ], [ %3, %34 ], [ %3, %32 ], [ %3, %27 ], [ %4, %44 ], [ %4, %43 ], [ %4, %41 ], [ %4, %36 ], [ %5, %53 ], [ %5, %52 ], [ %5, %50 ], [ %5, %45 ], [ %6, %62 ], [ %6, %61 ], [ %6, %59 ], [ %6, %54 ], [ %7, %71 ], [ %7, %70 ], [ %7, %68 ], [ %7, %63 ]
  ret ptr %.0
}